; Function Attrs: mustprogress uwtable
define hidden void @_ZN7datalog8compiler35make_filter_interpreted_and_projectEjR7obj_refI3app11ast_managerERK7svectorIjjERjbRNS_17instruction_blockE(ptr noundef nonnull align 8 dereferenceable(192) %0, i32 noundef %1, ptr noundef nonnull align 8 dereferenceable(16) %2, ptr noundef nonnull readonly align 8 captures(none) dereferenceable(8) %3, ptr noundef nonnull writeonly align 4 captures(none) dereferenceable(4) %4, i1 noundef zeroext %5, ptr noundef nonnull align 8 dereferenceable(16) %6) local_unnamed_addr #3 align 2 personality ptr @__gxx_personality_v0 {
  %8 = alloca %"class.datalog::relation_signature", align 8
  call void @llvm.lifetime.start.p0(i64 8, ptr nonnull %8) #20
  store ptr null, ptr %8, align 8, !tbaa !25
  %9 = getelementptr inbounds nuw i8, ptr %0, i64 48
  %10 = load ptr, ptr %9, align 8, !tbaa !243
  %11 = zext i32 %1 to i64
  %12 = getelementptr inbounds nuw %"class.datalog::relation_signature", ptr %10, i64 %11
  %13 = load ptr, ptr %3, align 8, !tbaa !254
  %14 = icmp eq ptr %13, null
  br i1 %14, label %_ZNK6vectorIjLb0EjE4sizeEv.exit, label %15

15:                                               ; preds = %7
  %16 = getelementptr inbounds i8, ptr %13, i64 -4
  %17 = load i32, ptr %16, align 4, !tbaa !24
  br label %_ZNK6vectorIjLb0EjE4sizeEv.exit

_ZNK6vectorIjLb0EjE4sizeEv.exit:                  ; preds = %7, %15
  %.0.i = phi i32 [ %17, %15 ], [ 0, %7 ]
  invoke void @_ZN7datalog17tr_infrastructureINS_15relation_traitsEE14signature_base12from_projectERKNS_18relation_signatureEjPKjRS4_(ptr noundef nonnull align 8 dereferenceable(8) %12, i32 noundef %.0.i, ptr noundef %13, ptr noundef nonnull align 8 dereferenceable(8) %8)
          to label %18 unwind label %55

18:                                               ; preds = %_ZNK6vectorIjLb0EjE4sizeEv.exit
  %19 = invoke noundef i32 @_ZN7datalog8compiler12get_registerERKNS_18relation_signatureEbj(ptr noundef nonnull align 8 dereferenceable(192) %0, ptr noundef nonnull align 8 dereferenceable(8) %8, i1 noundef zeroext %5, i32 noundef %1)
          to label %20 unwind label %55

20:                                               ; preds = %18
  store i32 %19, ptr %4, align 4, !tbaa !24
  %21 = load ptr, ptr %3, align 8, !tbaa !254
  %22 = icmp eq ptr %21, null
  br i1 %22, label %_ZNK6vectorIjLb0EjE4sizeEv.exit15, label %23

23:                                               ; preds = %20
  %24 = getelementptr inbounds i8, ptr %21, i64 -4
  %25 = load i32, ptr %24, align 4, !tbaa !24
  br label %_ZNK6vectorIjLb0EjE4sizeEv.exit15

_ZNK6vectorIjLb0EjE4sizeEv.exit15:                ; preds = %20, %23
  %.0.i14 = phi i32 [ %25, %23 ], [ 0, %20 ]
  %26 = invoke noundef ptr @_ZN7datalog11instruction33mk_filter_interpreted_and_projectEjR7obj_refI3app11ast_managerEjPKjj(i32 noundef %1, ptr noundef nonnull align 8 dereferenceable(16) %2, i32 noundef %.0.i14, ptr noundef %21, i32 noundef %19)
          to label %27 unwind label %55

27:                                               ; preds = %_ZNK6vectorIjLb0EjE4sizeEv.exit15
  %28 = load ptr, ptr %6, align 8, !tbaa !245
  %29 = icmp eq ptr %28, null
  br i1 %29, label %36, label %30

30:                                               ; preds = %27
  %31 = getelementptr inbounds i8, ptr %28, i64 -4
  %32 = load i32, ptr %31, align 4, !tbaa !24
  %33 = getelementptr inbounds i8, ptr %28, i64 -8
  %34 = load i32, ptr %33, align 4, !tbaa !24
  %35 = icmp eq i32 %32, %34
  br i1 %35, label %36, label %_ZN6vectorIPN7datalog11instructionELb0EjE9push_backERKS2_.exit.i

36:                                               ; preds = %30, %27
  invoke void @_ZN6vectorIPN7datalog11instructionELb0EjE13expand_vectorEv(ptr noundef nonnull align 8 dereferenceable(16) %6)
          to label %.noexc unwind label %55

.noexc:                                           ; preds = %36
  %.pre.i.i = load ptr, ptr %6, align 8, !tbaa !245
  %.phi.trans.insert.i.i = getelementptr inbounds i8, ptr %.pre.i.i, i64 -4
  %.pre2.i.i = load i32, ptr %.phi.trans.insert.i.i, align 4, !tbaa !24
  br label %_ZN6vectorIPN7datalog11instructionELb0EjE9push_backERKS2_.exit.i

_ZN6vectorIPN7datalog11instructionELb0EjE9push_backERKS2_.exit.i: ; preds = %.noexc, %30
  %37 = phi i32 [ %.pre2.i.i, %.noexc ], [ %32, %30 ]
  %38 = phi ptr [ %.pre.i.i, %.noexc ], [ %28, %30 ]
  %39 = getelementptr inbounds i8, ptr %38, i64 -4
  %40 = zext i32 %37 to i64
  %41 = getelementptr inbounds nuw ptr, ptr %38, i64 %40
  store ptr %26, ptr %41, align 8, !tbaa !248
  %42 = add i32 %37, 1
  store i32 %42, ptr %39, align 4, !tbaa !24
  %43 = getelementptr inbounds nuw i8, ptr %6, i64 8
  %44 = load ptr, ptr %43, align 8, !tbaa !250
  %.not.i = icmp eq ptr %44, null
  br i1 %.not.i, label %_ZN7datalog17instruction_block9push_backEPNS_11instructionE.exit, label %45

45:                                               ; preds = %_ZN6vectorIPN7datalog11instructionELb0EjE9push_backERKS2_.exit.i
  %46 = load ptr, ptr %44, align 8, !tbaa !241
  %47 = getelementptr inbounds nuw i8, ptr %46, i64 16
  %48 = load ptr, ptr %47, align 8
  invoke void %48(ptr noundef nonnull align 8 dereferenceable(8) %44, ptr noundef %26)
          to label %_ZN7datalog17instruction_block9push_backEPNS_11instructionE.exit unwind label %55

_ZN7datalog17instruction_block9push_backEPNS_11instructionE.exit: ; preds = %_ZN6vectorIPN7datalog11instructionELb0EjE9push_backERKS2_.exit.i, %45
  %49 = load ptr, ptr %8, align 8, !tbaa !25
  %.not.i.i = icmp eq ptr %49, null
  br i1 %.not.i.i, label %_ZN6vectorIP4sortLb0EjED2Ev.exit, label %50

50:                                               ; preds = %_ZN7datalog17instruction_block9push_backEPNS_11instructionE.exit
  %51 = getelementptr inbounds i8, ptr %49, i64 -8
  invoke void @_ZN6memory10deallocateEPv(ptr noundef nonnull %51)
          to label %_ZN6vectorIP4sortLb0EjED2Ev.exit unwind label %52

52:                                               ; preds = %50
  %53 = landingpad { ptr, i32 }
          catch ptr null
  %54 = extractvalue { ptr, i32 } %53, 0
  call void @__clang_call_terminate(ptr %54) #21
  unreachable

_ZN6vectorIP4sortLb0EjED2Ev.exit:                 ; preds = %_ZN7datalog17instruction_block9push_backEPNS_11instructionE.exit, %50
  call void @llvm.lifetime.end.p0(i64 8, ptr nonnull %8) #20
  ret void

55:                                               ; preds = %45, %36, %_ZNK6vectorIjLb0EjE4sizeEv.exit15, %18, %_ZNK6vectorIjLb0EjE4sizeEv.exit
  %56 = landingpad { ptr, i32 }
          cleanup
  call void @_ZN6vectorIP4sortLb0EjED2Ev(ptr noundef nonnull align 8 dereferenceable(8) %8) #20
  call void @llvm.lifetime.end.p0(i64 8, ptr nonnull %8) #20
  resume { ptr, i32 } %56
}